target datalayout = "e-m:e-p270:32:32-p271:32:32-p272:64:64-i64:64-i128:128-f80:128-n8:16:32:64-S128"
target triple = "x86_64-pc-linux-gnu"

; Function Attrs: nounwind uwtable
define void @ff_ivi_inverse_haar_4x4(ptr noundef %0, ptr noundef %1, i64 noundef %2, ptr noundef %3) #0 {
  %5 = alloca ptr, align 8
  %6 = alloca ptr, align 8
  %7 = alloca i64, align 8
  %8 = alloca ptr, align 8
  %9 = alloca i32, align 4
  %10 = alloca i32, align 4
  %11 = alloca i32, align 4
  %12 = alloca i32, align 4
  %13 = alloca ptr, align 8
  %14 = alloca ptr, align 8
  %15 = alloca [16 x i32], align 16
  %16 = alloca i32, align 4
  %17 = alloca i32, align 4
  %18 = alloca i32, align 4
  %19 = alloca i32, align 4
  %20 = alloca i32, align 4
  store ptr %0, ptr %5, align 8, !tbaa !40
  store ptr %1, ptr %6, align 8, !tbaa !30
  store i64 %2, ptr %7, align 8, !tbaa !11
  store ptr %3, ptr %8, align 8, !tbaa !9
  call void @llvm.lifetime.start.p0(i64 4, ptr %9) #4
  call void @llvm.lifetime.start.p0(i64 4, ptr %10) #4
  call void @llvm.lifetime.start.p0(i64 4, ptr %11) #4
  call void @llvm.lifetime.start.p0(i64 4, ptr %12) #4
  call void @llvm.lifetime.start.p0(i64 8, ptr %13) #4
  call void @llvm.lifetime.start.p0(i64 8, ptr %14) #4
  call void @llvm.lifetime.start.p0(i64 64, ptr %15) #4
  call void @llvm.lifetime.start.p0(i64 4, ptr %16) #4
  call void @llvm.lifetime.start.p0(i64 4, ptr %17) #4
  call void @llvm.lifetime.start.p0(i64 4, ptr %18) #4
  call void @llvm.lifetime.start.p0(i64 4, ptr %19) #4
  call void @llvm.lifetime.start.p0(i64 4, ptr %20) #4
  %21 = load ptr, ptr %5, align 8, !tbaa !40
  store ptr %21, ptr %13, align 8, !tbaa !40
  %22 = getelementptr inbounds [16 x i32], ptr %15, i64 0, i64 0
  store ptr %22, ptr %14, align 8, !tbaa !40
  store i32 0, ptr %9, align 4, !tbaa !13
  br label %23

23:                                               ; preds = %112, %4
  %24 = load i32, ptr %9, align 4, !tbaa !13
  %25 = icmp slt i32 %24, 4
  br i1 %25, label %26, label %115

26:                                               ; preds = %23
  %27 = load ptr, ptr %8, align 8, !tbaa !9
  %28 = load i32, ptr %9, align 4, !tbaa !13
  %29 = sext i32 %28 to i64
  %30 = getelementptr inbounds i8, ptr %27, i64 %29
  %31 = load i8, ptr %30, align 1, !tbaa !34
  %32 = icmp ne i8 %31, 0
  br i1 %32, label %33, label %98

33:                                               ; preds = %26
  %34 = load i32, ptr %9, align 4, !tbaa !13
  %35 = and i32 %34, 2
  %36 = icmp ne i32 %35, 0
  %37 = xor i1 %36, true
  %38 = zext i1 %37 to i32
  store i32 %38, ptr %10, align 4, !tbaa !13
  %39 = load ptr, ptr %13, align 8, !tbaa !40
  %40 = getelementptr inbounds i32, ptr %39, i64 0
  %41 = load i32, ptr %40, align 4, !tbaa !13
  %42 = load i32, ptr %10, align 4, !tbaa !13
  %43 = shl i32 1, %42
  %44 = mul nsw i32 %41, %43
  store i32 %44, ptr %11, align 4, !tbaa !13
  %45 = load ptr, ptr %13, align 8, !tbaa !40
  %46 = getelementptr inbounds i32, ptr %45, i64 4
  %47 = load i32, ptr %46, align 4, !tbaa !13
  %48 = load i32, ptr %10, align 4, !tbaa !13
  %49 = shl i32 1, %48
  %50 = mul nsw i32 %47, %49
  store i32 %50, ptr %12, align 4, !tbaa !13
  %51 = load i32, ptr %11, align 4, !tbaa !13
  %52 = load i32, ptr %12, align 4, !tbaa !13
  %53 = sub nsw i32 %51, %52
  %54 = ashr i32 %53, 1
  store i32 %54, ptr %20, align 4, !tbaa !13
  %55 = load i32, ptr %11, align 4, !tbaa !13
  %56 = load i32, ptr %12, align 4, !tbaa !13
  %57 = add nsw i32 %55, %56
  %58 = ashr i32 %57, 1
  store i32 %58, ptr %16, align 4, !tbaa !13
  %59 = load i32, ptr %20, align 4, !tbaa !13
  store i32 %59, ptr %17, align 4, !tbaa !13
  %60 = load i32, ptr %16, align 4, !tbaa !13
  %61 = load ptr, ptr %13, align 8, !tbaa !40
  %62 = getelementptr inbounds i32, ptr %61, i64 8
  %63 = load i32, ptr %62, align 4, !tbaa !13
  %64 = sub nsw i32 %60, %63
  %65 = ashr i32 %64, 1
  store i32 %65, ptr %20, align 4, !tbaa !13
  %66 = load i32, ptr %16, align 4, !tbaa !13
  %67 = load ptr, ptr %13, align 8, !tbaa !40
  %68 = getelementptr inbounds i32, ptr %67, i64 8
  %69 = load i32, ptr %68, align 4, !tbaa !13
  %70 = add nsw i32 %66, %69
  %71 = ashr i32 %70, 1
  store i32 %71, ptr %18, align 4, !tbaa !13
  %72 = load i32, ptr %20, align 4, !tbaa !13
  store i32 %72, ptr %19, align 4, !tbaa !13
  %73 = load i32, ptr %18, align 4, !tbaa !13
  %74 = load ptr, ptr %14, align 8, !tbaa !40
  %75 = getelementptr inbounds i32, ptr %74, i64 0
  store i32 %73, ptr %75, align 4, !tbaa !13
  %76 = load i32, ptr %19, align 4, !tbaa !13
  %77 = load ptr, ptr %14, align 8, !tbaa !40
  %78 = getelementptr inbounds i32, ptr %77, i64 4
  store i32 %76, ptr %78, align 4, !tbaa !13
  %79 = load i32, ptr %17, align 4, !tbaa !13
  %80 = load ptr, ptr %13, align 8, !tbaa !40
  %81 = getelementptr inbounds i32, ptr %80, i64 12
  %82 = load i32, ptr %81, align 4, !tbaa !13
  %83 = sub nsw i32 %79, %82
  %84 = ashr i32 %83, 1
  store i32 %84, ptr %20, align 4, !tbaa !13
  %85 = load i32, ptr %17, align 4, !tbaa !13
  %86 = load ptr, ptr %13, align 8, !tbaa !40
  %87 = getelementptr inbounds i32, ptr %86, i64 12
  %88 = load i32, ptr %87, align 4, !tbaa !13
  %89 = add nsw i32 %85, %88
  %90 = ashr i32 %89, 1
  store i32 %90, ptr %18, align 4, !tbaa !13
  %91 = load i32, ptr %20, align 4, !tbaa !13
  store i32 %91, ptr %19, align 4, !tbaa !13
  %92 = load i32, ptr %18, align 4, !tbaa !13
  %93 = load ptr, ptr %14, align 8, !tbaa !40
  %94 = getelementptr inbounds i32, ptr %93, i64 8
  store i32 %92, ptr %94, align 4, !tbaa !13
  %95 = load i32, ptr %19, align 4, !tbaa !13
  %96 = load ptr, ptr %14, align 8, !tbaa !40
  %97 = getelementptr inbounds i32, ptr %96, i64 12
  store i32 %95, ptr %97, align 4, !tbaa !13
  br label %107

98:                                               ; preds = %26
  %99 = load ptr, ptr %14, align 8, !tbaa !40
  %100 = getelementptr inbounds i32, ptr %99, i64 12
  store i32 0, ptr %100, align 4, !tbaa !13
  %101 = load ptr, ptr %14, align 8, !tbaa !40
  %102 = getelementptr inbounds i32, ptr %101, i64 8
  store i32 0, ptr %102, align 4, !tbaa !13
  %103 = load ptr, ptr %14, align 8, !tbaa !40
  %104 = getelementptr inbounds i32, ptr %103, i64 4
  store i32 0, ptr %104, align 4, !tbaa !13
  %105 = load ptr, ptr %14, align 8, !tbaa !40
  %106 = getelementptr inbounds i32, ptr %105, i64 0
  store i32 0, ptr %106, align 4, !tbaa !13
  br label %107

107:                                              ; preds = %98, %33
  %108 = load ptr, ptr %13, align 8, !tbaa !40
  %109 = getelementptr inbounds nuw i32, ptr %108, i32 1
  store ptr %109, ptr %13, align 8, !tbaa !40
  %110 = load ptr, ptr %14, align 8, !tbaa !40
  %111 = getelementptr inbounds nuw i32, ptr %110, i32 1
  store ptr %111, ptr %14, align 8, !tbaa !40
  br label %112

112:                                              ; preds = %107
  %113 = load i32, ptr %9, align 4, !tbaa !13
  %114 = add nsw i32 %113, 1
  store i32 %114, ptr %9, align 4, !tbaa !13
  br label %23, !llvm.loop !46

115:                                              ; preds = %23
  %116 = getelementptr inbounds [16 x i32], ptr %15, i64 0, i64 0
  store ptr %116, ptr %13, align 8, !tbaa !40
  store i32 0, ptr %9, align 4, !tbaa !13
  br label %117

117:                                              ; preds = %208, %115
  %118 = load i32, ptr %9, align 4, !tbaa !13
  %119 = icmp slt i32 %118, 4
  br i1 %119, label %120, label %211

120:                                              ; preds = %117
  %121 = load ptr, ptr %13, align 8, !tbaa !40
  %122 = getelementptr inbounds i32, ptr %121, i64 0
  %123 = load i32, ptr %122, align 4, !tbaa !13
  %124 = icmp ne i32 %123, 0
  br i1 %124, label %142, label %125

125:                                              ; preds = %120
  %126 = load ptr, ptr %13, align 8, !tbaa !40
  %127 = getelementptr inbounds i32, ptr %126, i64 1
  %128 = load i32, ptr %127, align 4, !tbaa !13
  %129 = icmp ne i32 %128, 0
  br i1 %129, label %142, label %130

130:                                              ; preds = %125
  %131 = load ptr, ptr %13, align 8, !tbaa !40
  %132 = getelementptr inbounds i32, ptr %131, i64 2
  %133 = load i32, ptr %132, align 4, !tbaa !13
  %134 = icmp ne i32 %133, 0
  br i1 %134, label %142, label %135

135:                                              ; preds = %130
  %136 = load ptr, ptr %13, align 8, !tbaa !40
  %137 = getelementptr inbounds i32, ptr %136, i64 3
  %138 = load i32, ptr %137, align 4, !tbaa !13
  %139 = icmp ne i32 %138, 0
  br i1 %139, label %142, label %140

140:                                              ; preds = %135
  %141 = load ptr, ptr %6, align 8, !tbaa !30
  call void @llvm.memset.p0.i64(ptr align 2 %141, i8 0, i64 8, i1 false)
  br label %202

142:                                              ; preds = %135, %130, %125, %120
  %143 = load ptr, ptr %13, align 8, !tbaa !40
  %144 = getelementptr inbounds i32, ptr %143, i64 0
  %145 = load i32, ptr %144, align 4, !tbaa !13
  %146 = load ptr, ptr %13, align 8, !tbaa !40
  %147 = getelementptr inbounds i32, ptr %146, i64 1
  %148 = load i32, ptr %147, align 4, !tbaa !13
  %149 = sub nsw i32 %145, %148
  %150 = ashr i32 %149, 1
  store i32 %150, ptr %20, align 4, !tbaa !13
  %151 = load ptr, ptr %13, align 8, !tbaa !40
  %152 = getelementptr inbounds i32, ptr %151, i64 0
  %153 = load i32, ptr %152, align 4, !tbaa !13
  %154 = load ptr, ptr %13, align 8, !tbaa !40
  %155 = getelementptr inbounds i32, ptr %154, i64 1
  %156 = load i32, ptr %155, align 4, !tbaa !13
  %157 = add nsw i32 %153, %156
  %158 = ashr i32 %157, 1
  store i32 %158, ptr %16, align 4, !tbaa !13
  %159 = load i32, ptr %20, align 4, !tbaa !13
  store i32 %159, ptr %17, align 4, !tbaa !13
  %160 = load i32, ptr %16, align 4, !tbaa !13
  %161 = load ptr, ptr %13, align 8, !tbaa !40
  %162 = getelementptr inbounds i32, ptr %161, i64 2
  %163 = load i32, ptr %162, align 4, !tbaa !13
  %164 = sub nsw i32 %160, %163
  %165 = ashr i32 %164, 1
  store i32 %165, ptr %20, align 4, !tbaa !13
  %166 = load i32, ptr %16, align 4, !tbaa !13
  %167 = load ptr, ptr %13, align 8, !tbaa !40
  %168 = getelementptr inbounds i32, ptr %167, i64 2
  %169 = load i32, ptr %168, align 4, !tbaa !13
  %170 = add nsw i32 %166, %169
  %171 = ashr i32 %170, 1
  store i32 %171, ptr %18, align 4, !tbaa !13
  %172 = load i32, ptr %20, align 4, !tbaa !13
  store i32 %172, ptr %19, align 4, !tbaa !13
  %173 = load i32, ptr %18, align 4, !tbaa !13
  %174 = trunc i32 %173 to i16
  %175 = load ptr, ptr %6, align 8, !tbaa !30
  %176 = getelementptr inbounds i16, ptr %175, i64 0
  store i16 %174, ptr %176, align 2, !tbaa !32
  %177 = load i32, ptr %19, align 4, !tbaa !13
  %178 = trunc i32 %177 to i16
  %179 = load ptr, ptr %6, align 8, !tbaa !30
  %180 = getelementptr inbounds i16, ptr %179, i64 1
  store i16 %178, ptr %180, align 2, !tbaa !32
  %181 = load i32, ptr %17, align 4, !tbaa !13
  %182 = load ptr, ptr %13, align 8, !tbaa !40
  %183 = getelementptr inbounds i32, ptr %182, i64 3
  %184 = load i32, ptr %183, align 4, !tbaa !13
  %185 = sub nsw i32 %181, %184
  %186 = ashr i32 %185, 1
  store i32 %186, ptr %20, align 4, !tbaa !13
  %187 = load i32, ptr %17, align 4, !tbaa !13
  %188 = load ptr, ptr %13, align 8, !tbaa !40
  %189 = getelementptr inbounds i32, ptr %188, i64 3
  %190 = load i32, ptr %189, align 4, !tbaa !13
  %191 = add nsw i32 %187, %190
  %192 = ashr i32 %191, 1
  store i32 %192, ptr %18, align 4, !tbaa !13
  %193 = load i32, ptr %20, align 4, !tbaa !13
  store i32 %193, ptr %19, align 4, !tbaa !13
  %194 = load i32, ptr %18, align 4, !tbaa !13
  %195 = trunc i32 %194 to i16
  %196 = load ptr, ptr %6, align 8, !tbaa !30
  %197 = getelementptr inbounds i16, ptr %196, i64 2
  store i16 %195, ptr %197, align 2, !tbaa !32
  %198 = load i32, ptr %19, align 4, !tbaa !13
  %199 = trunc i32 %198 to i16
  %200 = load ptr, ptr %6, align 8, !tbaa !30
  %201 = getelementptr inbounds i16, ptr %200, i64 3
  store i16 %199, ptr %201, align 2, !tbaa !32
  br label %202

202:                                              ; preds = %142, %140
  %203 = load ptr, ptr %13, align 8, !tbaa !40
  %204 = getelementptr inbounds i32, ptr %203, i64 4
  store ptr %204, ptr %13, align 8, !tbaa !40
  %205 = load i64, ptr %7, align 8, !tbaa !11
  %206 = load ptr, ptr %6, align 8, !tbaa !30
  %207 = getelementptr inbounds i16, ptr %206, i64 %205
  store ptr %207, ptr %6, align 8, !tbaa !30
  br label %208

208:                                              ; preds = %202
  %209 = load i32, ptr %9, align 4, !tbaa !13
  %210 = add nsw i32 %209, 1
  store i32 %210, ptr %9, align 4, !tbaa !13
  br label %117, !llvm.loop !47

211:                                              ; preds = %117
  call void @llvm.lifetime.end.p0(i64 4, ptr %20) #4
  call void @llvm.lifetime.end.p0(i64 4, ptr %19) #4
  call void @llvm.lifetime.end.p0(i64 4, ptr %18) #4
  call void @llvm.lifetime.end.p0(i64 4, ptr %17) #4
  call void @llvm.lifetime.end.p0(i64 4, ptr %16) #4
  call void @llvm.lifetime.end.p0(i64 64, ptr %15) #4
  call void @llvm.lifetime.end.p0(i64 8, ptr %14) #4
  call void @llvm.lifetime.end.p0(i64 8, ptr %13) #4
  call void @llvm.lifetime.end.p0(i64 4, ptr %12) #4
  call void @llvm.lifetime.end.p0(i64 4, ptr %11) #4
  call void @llvm.lifetime.end.p0(i64 4, ptr %10) #4
  call void @llvm.lifetime.end.p0(i64 4, ptr %9) #4
  ret void
}