; Function Attrs: nofree norecurse nosync nounwind memory(argmem: readwrite) uwtable
define void @ff_ivi_inverse_haar_4x4(ptr noundef readonly captures(none) %0, ptr noundef writeonly captures(none) %1, i64 noundef %2, ptr noundef readonly captures(none) %3) local_unnamed_addr #2 {
  %5 = alloca [16 x i32], align 16
  call void @llvm.lifetime.start.p0(i64 64, ptr nonnull %5) #5
  br label %6

6:                                                ; preds = %4, %32
  %indvars.iv = phi i64 [ 0, %4 ], [ %indvars.iv.next, %32 ]
  %.082 = phi ptr [ %5, %4 ], [ %37, %32 ]
  %.07181 = phi ptr [ %0, %4 ], [ %36, %32 ]
  %7 = getelementptr inbounds nuw i8, ptr %3, i64 %indvars.iv
  %8 = load i8, ptr %7, align 1, !tbaa !28
  %.not78 = icmp eq i8 %8, 0
  br i1 %.not78, label %32, label %9

9:                                                ; preds = %6
  %.not79 = icmp samesign ult i64 %indvars.iv, 2
  %10 = zext i1 %.not79 to i32
  %11 = load i32, ptr %.07181, align 4, !tbaa !34
  %12 = shl nsw i32 %11, %10
  %13 = getelementptr inbounds nuw i8, ptr %.07181, i64 16
  %14 = load i32, ptr %13, align 4, !tbaa !34
  %15 = shl nsw i32 %14, %10
  %16 = sub nsw i32 %12, %15
  %17 = ashr i32 %16, 1
  %18 = add nsw i32 %15, %12
  %19 = ashr i32 %18, 1
  %20 = getelementptr inbounds nuw i8, ptr %.07181, i64 32
  %21 = load i32, ptr %20, align 4, !tbaa !34
  %22 = sub nsw i32 %19, %21
  %23 = ashr i32 %22, 1
  %24 = add nsw i32 %19, %21
  %25 = ashr i32 %24, 1
  %26 = getelementptr inbounds nuw i8, ptr %.07181, i64 48
  %27 = load i32, ptr %26, align 4, !tbaa !34
  %28 = sub nsw i32 %17, %27
  %29 = ashr i32 %28, 1
  %30 = add nsw i32 %27, %17
  %31 = ashr i32 %30, 1
  br label %32

32:                                               ; preds = %6, %9
  %.sink90 = phi i32 [ %29, %9 ], [ 0, %6 ]
  %.sink89 = phi i32 [ %31, %9 ], [ 0, %6 ]
  %.sink88 = phi i32 [ %23, %9 ], [ 0, %6 ]
  %.sink = phi i32 [ %25, %9 ], [ 0, %6 ]
  %33 = getelementptr inbounds nuw i8, ptr %.082, i64 48
  store i32 %.sink90, ptr %33, align 4, !tbaa !34
  %34 = getelementptr inbounds nuw i8, ptr %.082, i64 32
  store i32 %.sink89, ptr %34, align 4, !tbaa !34
  %35 = getelementptr inbounds nuw i8, ptr %.082, i64 16
  store i32 %.sink88, ptr %35, align 4, !tbaa !34
  store i32 %.sink, ptr %.082, align 4, !tbaa !34
  %36 = getelementptr inbounds nuw i8, ptr %.07181, i64 4
  %37 = getelementptr inbounds nuw i8, ptr %.082, i64 4
  %indvars.iv.next = add nuw nsw i64 %indvars.iv, 1
  %exitcond.not = icmp eq i64 %indvars.iv.next, 4
  br i1 %exitcond.not, label %.preheader, label %6, !llvm.loop !39

.preheader:                                       ; preds = %32, %72
  %.185 = phi ptr [ %73, %72 ], [ %5, %32 ]
  %.07284 = phi ptr [ %74, %72 ], [ %1, %32 ]
  %.17483 = phi i32 [ %75, %72 ], [ 0, %32 ]
  %38 = load i32, ptr %.185, align 4, !tbaa !34
  %.not = icmp eq i32 %38, 0
  %39 = getelementptr inbounds nuw i8, ptr %.185, i64 4
  %40 = load i32, ptr %39, align 4, !tbaa !34
  %.not75 = icmp eq i32 %40, 0
  %or.cond = select i1 %.not, i1 %.not75, i1 false
  br i1 %or.cond, label %41, label %.preheader._crit_edge

41:                                               ; preds = %.preheader
  %42 = getelementptr inbounds nuw i8, ptr %.185, i64 8
  %43 = load i32, ptr %42, align 4, !tbaa !34
  %.not76 = icmp eq i32 %43, 0
  br i1 %.not76, label %44, label %.preheader._crit_edge

44:                                               ; preds = %41
  %45 = getelementptr inbounds nuw i8, ptr %.185, i64 12
  %46 = load i32, ptr %45, align 4, !tbaa !34
  %.not77 = icmp eq i32 %46, 0
  br i1 %.not77, label %47, label %.preheader._crit_edge

47:                                               ; preds = %44
  store i64 0, ptr %.07284, align 2
  br label %72

.preheader._crit_edge:                            ; preds = %.preheader, %44, %41
  %48 = phi i32 [ 0, %44 ], [ 0, %41 ], [ %40, %.preheader ]
  %49 = sub nsw i32 %38, %48
  %50 = ashr i32 %49, 1
  %51 = add nsw i32 %48, %38
  %52 = ashr i32 %51, 1
  %53 = getelementptr inbounds nuw i8, ptr %.185, i64 8
  %54 = load i32, ptr %53, align 4, !tbaa !34
  %55 = sub nsw i32 %52, %54
  %56 = lshr i32 %55, 1
  %57 = add nsw i32 %52, %54
  %58 = lshr i32 %57, 1
  %59 = trunc i32 %58 to i16
  store i16 %59, ptr %.07284, align 2, !tbaa !27
  %60 = trunc i32 %56 to i16
  %61 = getelementptr inbounds nuw i8, ptr %.07284, i64 2
  store i16 %60, ptr %61, align 2, !tbaa !27
  %62 = getelementptr inbounds nuw i8, ptr %.185, i64 12
  %63 = load i32, ptr %62, align 4, !tbaa !34
  %64 = sub nsw i32 %50, %63
  %65 = lshr i32 %64, 1
  %66 = add nsw i32 %63, %50
  %67 = lshr i32 %66, 1
  %68 = trunc i32 %67 to i16
  %69 = getelementptr inbounds nuw i8, ptr %.07284, i64 4
  store i16 %68, ptr %69, align 2, !tbaa !27
  %70 = trunc i32 %65 to i16
  %71 = getelementptr inbounds nuw i8, ptr %.07284, i64 6
  store i16 %70, ptr %71, align 2, !tbaa !27
  br label %72

72:                                               ; preds = %.preheader._crit_edge, %47
  %73 = getelementptr inbounds nuw i8, ptr %.185, i64 16
  %74 = getelementptr inbounds i16, ptr %.07284, i64 %2
  %75 = add nuw nsw i32 %.17483, 1
  %exitcond87.not = icmp eq i32 %75, 4
  br i1 %exitcond87.not, label %76, label %.preheader, !llvm.loop !40

76:                                               ; preds = %72
  call void @llvm.lifetime.end.p0(i64 64, ptr nonnull %5) #5
  ret void
}